; Function Attrs: mustprogress uwtable
define hidden noundef i64 @_ZNK12opencv_caffe22NormalizeBBoxParameter12ByteSizeLongEv(ptr noundef nonnull align 8 dereferenceable(40) %0) unnamed_addr #3 align 2 {
  %2 = getelementptr inbounds nuw i8, ptr %0, i64 16
  %3 = load i32, ptr %2, align 8, !tbaa !71
  %4 = and i32 %3, 15
  %.not = icmp eq i32 %4, 0
  br i1 %.not, label %27, label %5

5:                                                ; preds = %1
  %6 = and i32 %3, 1
  %.not10 = icmp eq i32 %6, 0
  br i1 %.not10, label %21, label %7

7:                                                ; preds = %5
  %8 = getelementptr inbounds nuw i8, ptr %0, i64 24
  %9 = load ptr, ptr %8, align 8, !tbaa !115
  %10 = tail call noundef i64 @_ZNK12opencv_caffe15FillerParameter12ByteSizeLongEv(ptr noundef nonnull align 8 dereferenceable(64) %9)
  %11 = trunc i64 %10 to i32
  %12 = or i32 %11, 1
  %13 = tail call range(i32 0, 33) i32 @llvm.ctlz.i32(i32 %12, i1 true)
  %14 = xor i32 %13, 31
  %15 = mul nuw nsw i32 %14, 9
  %16 = add nuw nsw i32 %15, 73
  %17 = lshr i32 %16, 6
  %18 = zext nneg i32 %17 to i64
  %19 = add i64 %10, 1
  %20 = add i64 %19, %18
  br label %21

21:                                               ; preds = %7, %5
  %.1 = phi i64 [ %20, %7 ], [ 0, %5 ]
  %22 = and i32 %3, 2
  %23 = lshr i32 %3, 1
  %24 = and i32 %23, 2
  %narrow = add nuw nsw i32 %24, %22
  %spec.select = zext nneg i32 %narrow to i64
  %.3 = add i64 %.1, %spec.select
  %25 = and i32 %3, 8
  %.not13 = icmp eq i32 %25, 0
  %26 = add i64 %.3, 5
  %spec.select14 = select i1 %.not13, i64 %.3, i64 %26
  br label %27

27:                                               ; preds = %21, %1
  %.0 = phi i64 [ 0, %1 ], [ %spec.select14, %21 ]
  %28 = getelementptr inbounds nuw i8, ptr %0, i64 20
  %29 = tail call noundef i64 @_ZNK6google8protobuf7Message29MaybeComputeUnknownFieldsSizeEmPNS0_8internal10CachedSizeE(ptr noundef nonnull align 8 dereferenceable(16) %0, i64 noundef %.0, ptr noundef nonnull %28)
  ret i64 %29
}